c__builtin__
set
p0
((lp1
S'secondly'
p2
aVall
p3
aS'consider'
p4
aS'whoever'
p5
aS'four'
p6
aS'edu'
p7
aS'go'
p8
aS'causes'
p9
aS'seemed'
p10
aS'rd'
p11
aS'certainly'
p12
aS'vs'
p13
aVto
p14
aVdoes
p15
aS'th'
p16
aVunder
p17
aS'sorry'
p18
aS"a's"
p19
aS'sent'
p20
aS'outside'
p21
aVvery
p22
aS'every'
p23
aVyourselves
p24
aS"we'll"
p25
aS'went'
p26
aVdid
p27
aS'forth'
p28
aS"they've"
p29
aS'try'
p30
aS'p'
p31
aS"it'll"
p32
aS"i'll"
p33
aS'says'
p34
aS"you'd"
p35
aS'likely'
p36
aVfurther
p37
aS'quite'
p38
aS'even'
p39
aVwhat
p40
aS'appear'
p41
aS'brief'
p42
aVabove
p43
aS'sup'
p44
aS'new'
p45
aS'ever'
p46
aS"c'mon"
p47
aS'whose'
p48
aS'respectively'
p49
aS'never'
p50
aVhere
p51
aS'let'
p52
aS'others'
p53
aS"hadn't"
p54
aS'along'
p55
aS"aren't"
p56
aS'k'
p57
aS'allows'
p58
aS"i'd"
p59
aS'howbeit'
p60
aS'usually'
p61
aS'whereupon'
p62
aS"i'm"
p63
aS'changes'
p64
aS'thats'
p65
aS'hither'
p66
aS'via'
p67
aS'followed'
p68
aS'merely'
p69
aS'viz'
p70
aS'everybody'
p71
aS'use'
p72
aVfrom
p73
aS'would'
p74
aS'contains'
p75
aS'two'
p76
aS'next'
p77
aVfew
p78
aS'therefore'
p79
aS'taken'
p80
aVthemselves
p81
aS'thru'
p82
aVuntil
p83
aVmore
p84
aS'knows'
p85
aS'becomes'
p86
aS'hereby'
p87
aVit
p88
aS"ain't"
p89
aS'particular'
p90
aS'known'
p91
aS'must'
p92
aVme
p93
aS'none'
p94
aS'f'
p95
aVthis
p96
aS'oh'
p97
aS'anywhere'
p98
aS'nine'
p99
aVcan
p100
aVtheirs
p101
aS'following'
p102
aVmy
p103
aS'example'
p104
aS'indicated'
p105
aS"didn't"
p106
aS'near'
p107
aS'indicates'
p108
aS'something'
p109
aS'want'
p110
aS'needs'
p111
aS'rather'
p112
aS'ie'
p113
aS'meanwhile'
p114
aVhow
p115
aS'instead'
p116
aS'okay'
p117
aS'tried'
p118
aS'may'
p119
aVafter
p120
aS'different'
p121
aS'hereupon'
p122
aVsuch
p123
aVa
p124
aS'third'
p125
aS'whenever'
p126
aS'maybe'
p127
aS'appreciate'
p128
aS'q'
p129
aS'ones'
p130
aVso
p131
aS'specifying'
p132
aS'allow'
p133
aS'keeps'
p134
aS"that's"
p135
aS'six'
p136
aS'help'
p137
aS"don't"
p138
aS'indeed'
p139
aVover
p140
aS'mainly'
p141
aS'soon'
p142
aS'course'
p143
aVthrough
p144
aS'looks'
p145
aS'still'
p146
aVits
p147
aVbefore
p148
aS'thank'
p149
aS"he's"
p150
aS'selves'
p151
aS'inward'
p152
aS'actually'
p153
aS'better'
p154
aS'whether'
p155
aS'willing'
p156
aS'thanx'
p157
aVours
p158
aS'might'
p159
aS"haven't"
p160
aVthen
p161
aVthem
p162
aS'someone'
p163
aS'somebody'
p164
aS'thereby'
p165
aS"you've"
p166
aVthey
p167
aVnot
p168
aVnow
p169
aVnor
p170
aS'several'
p171
aS'hereafter'
p172
aS'always'
p173
aS'reasonably'
p174
aS'whither'
p175
aS'l'
p176
aVeach
p177
aS'entirely'
p178
aS"isn't"
p179
aS'mean'
p180
aS'everyone'
p181
aVdoing
p182
aS'eg'
p183
aS'ex'
p184
aVour
p185
aS'beyond'
p186
aVout
p187
aS'furthermore'
p188
aS'since'
p189
aS'looking'
p190
aS're'
p191
aS'seriously'
p192
aS"shouldn't"
p193
aS"they'll"
p194
aS'got'
p195
aS'cause'
p196
aS'thereupon'
p197
aS"you're"
p198
aS'given'
p199
aS'like'
p200
aS'que'
p201
aS'besides'
p202
aS'x'
p203
aS'ask'
p204
aS'anyhow'
p205
aS'g'
p206
aS'could'
p207
aS'tries'
p208
aS'keep'
p209
aS'w'
p210
aS'ltd'
p211
aS'hence'
p212
aS'onto'
p213
aS'think'
p214
aS'first'
p215
aS'already'
p216
aS'seeming'
p217
aS'thereafter'
p218
aVyourself
p219
aS'done'
p220
aS'another'
p221
aS'awfully'
p222
aS"doesn't"
p223
aS'little'
p224
aVtheir
p225
aS'accordingly'
p226
aS'least'
p227
aS'name'
p228
aS'anyone'
p229
aS'indicate'
p230
aVtoo
p231
aS'gives'
p232
aS'mostly'
p233
aVthat
p234
aS'exactly'
p235
aS'took'
p236
aS'immediate'
p237
aS'regards'
p238
aS'somewhat'
p239
aVoff
p240
aS'believe'
p241
aVherself
p242
aVthan
p243
aS"here's"
p244
aS'b'
p245
aS'unfortunately'
p246
aS'gotten'
p247
aS'second'
p248
aS'nevertheless'
p249
aS'r'
p250
aVwere
p251
aS'toward'
p252
aS'anyways'
p253
aVand
p254
aS'beforehand'
p255
aS'say'
p256
aS'unlikely'
p257
aVhave
p258
aS'need'
p259
aS'seen'
p260
aS'seem'
p261
aS'saw'
p262
aVany
p263
aS'relatively'
p264
aS'zero'
p265
aS'thoroughly'
p266
aS'latter'
p267
aS'able'
p268
aS'aside'
p269
aS'thorough'
p270
aS'also'
p271
aS'take'
p272
aVwhich
p273
aS'nobody'
p274
aS'unless'
p275
aS'shall'
p276
aVwho
p277
aS"where's"
p278
aVmost
p279
aS'eight'
p280
aS'amongst'
p281
aS'nothing'
p282
aVwhy
p283
aS'sub'
p284
aVdon
p285
aS'especially'
p286
aS'noone'
p287
aS'later'
p288
aS'm'
p289
aS"you'll"
p290
aS'definitely'
p291
aS'normally'
p292
aS'came'
p293
aS'saying'
p294
aS'particularly'
p295
aS'anyway'
p296
aS'fifth'
p297
aS'one'
p298
aS'behind'
p299
aVshould
p300
aVonly
p301
aS'going'
p302
aS'specify'
p303
aVdo
p304
aVhis
p305
aS'goes'
p306
aS'get'
p307
aVbetween
p308
aS'overall'
p309
aS'truly'
p310
aS"they'd"
p311
aS'cannot'
p312
aS'nearly'
p313
aS'despite'
p314
aVduring
p315
aVhim
p316
aS'regarding'
p317
aS'qv'
p318
aS'h'
p319
aS'twice'
p320
aVshe
p321
aS'contain'
p322
aS"won't"
p323
aVwhere
p324
aS'thanks'
p325
aS'ignored'
p326
aVup
p327
aS'namely'
p328
aVare
p329
aS'best'
p330
aS'wonder'
p331
aS'said'
p332
aS'away'
p333
aS'currently'
p334
aS'please'
p335
aS'enough'
p336
aS"there's"
p337
aS'various'
p338
aS'hopefully'
p339
aS'probably'
p340
aS'neither'
p341
aS'across'
p342
aS'available'
p343
aVwe
p344
aS'useful'
p345
aS'however'
p346
aS'come'
p347
aVboth
p348
aS'c'
p349
aS'last'
p350
aS'many'
p351
aS"wouldn't"
p352
aS'thence'
p353
aS'according'
p354
aVagainst
p355
aS'etc'
p356
aVs
p357
aS'became'
p358
aS'com'
p359
aS"can't"
p360
aS'otherwise'
p361
aS'among'
p362
aS'liked'
p363
aS'co'
p364
aS'afterwards'
p365
aS'seems'
p366
aS'whatever'
p367
aVhers
p368
aS'non'
p369
aS"couldn't"
p370
aS'moreover'
p371
aS'throughout'
p372
aS'considering'
p373
aS'sensible'
p374
aS'described'
p375
aS"it's"
p376
aS'three'
p377
aVbeen
p378
aVwhom
p379
aS'much'
p380
aS'wherein'
p381
aS'hardly'
p382
aS"it'd"
p383
aS'wants'
p384
aS'corresponding'
p385
aS'latterly'
p386
aS'concerning'
p387
aS'else'
p388
aS'former'
p389
aVthose
p390
aVmyself
p391
aS'novel'
p392
aS'look'
p393
aVthese
p394
aS'nd'
p395
aS'value'
p396
aS'n'
p397
aVwill
p398
aVwhile
p399
aS'theres'
p400
aS'seven'
p401
aS'whereafter'
p402
aS'almost'
p403
aS'wherever'
p404
aVis
p405
aS'thus'
p406
aS'herein'
p407
aS'cant'
p408
aVitself
p409
aVin
p410
aS'alone'
p411
aVif
p412
aS'containing'
p413
aS'perhaps'
p414
aS'insofar'
p415
aVsame
p416
aS'clearly'
p417
aS'beside'
p418
aS'gets'
p419
aS"weren't"
p420
aS'used'
p421
aS'see'
p422
aS'somewhere'
p423
aS'upon'
p424
aS'uses'
p425
aS'kept'
p426
aS'whereby'
p427
aVi
p428
aS'whole'
p429
aS'well'
p430
aS'anybody'
p431
aS'obviously'
p432
aS'without'
p433
aS'comes'
p434
aS'y'
p435
aVthe
p436
aVyours
p437
aS'lest'
p438
aVjust
p439
aS'less'
p440
aVbeing
p441
aS'downwards'
p442
aS'presumably'
p443
aS'greetings'
p444
aS'regardless'
p445
aS'yes'
p446
aS'yet'
p447
aS'unto'
p448
aS"we've"
p449
aVhad
p450
aS'except'
p451
aVhas
p452
aS'ought'
p453
aS"t's"
p454
aS'around'
p455
aS"who's"
p456
aS'possible'
p457
aS'five'
p458
aS'know'
p459
aS'using'
p460
aS'apart'
p461
aS'necessary'
p462
aS'd'
p463
aS'follows'
p464
aVt
p465
aS'become'
p466
aS'towards'
p467
aS'therein'
p468
aVbecause
p469
aS'old'
p470
aS'often'
p471
aVsome
p472
aS'somehow'
p473
aS'self'
p474
aS'sure'
p475
aS'specified'
p476
aVourselves
p477
aS'happens'
p478
aVfor
p479
aS'though'
p480
aS'per'
p481
aS'everything'
p482
aS'asking'
p483
aS'provides'
p484
aS'tends'
p485
aS'either'
p486
aVbe
p487
aS'nowhere'
p488
aS'although'
p489
aVby
p490
aVon
p491
aVabout
p492
aS'ok'
p493
aS'anything'
p494
aS'getting'
p495
aVof
p496
aS'v'
p497
aS'o'
p498
aS'whence'
p499
aS'plus'
p500
aS'consequently'
p501
aVor
p502
aS'seeing'
p503
aVown
p504
aS'formerly'
p505
aVinto
p506
aS'within'
p507
aVdown
p508
aS'appropriate'
p509
aS'right'
p510
aS"c's"
p511
aVyour
p512
aVher
p513
aVthere
p514
aS'inasmuch'
p515
aS'inner'
p516
aS'way'
p517
aVwas
p518
aVhimself
p519
aS'elsewhere'
p520
aS"i've"
p521
aS'becoming'
p522
aVbut
p523
aS'hi'
p524
aS'trying'
p525
aVwith
p526
aVhe
p527
aS"they're"
p528
aS"wasn't"
p529
aS'wish'
p530
aS'j'
p531
aS"hasn't"
p532
aS'us'
p533
aS'tell'
p534
aS'placed'
p535
aVbelow
p536
aS'un'
p537
aS'z'
p538
aS"we'd"
p539
aS'gone'
p540
aS'sometimes'
p541
aS'associated'
p542
aS'certain'
p543
aVam
p544
aVan
p545
aVas
p546
aS'sometime'
p547
aVat
p548
aS'et'
p549
aS'inc'
p550
aVagain
p551
aS'uucp'
p552
aVno
p553
aS'whereas'
p554
aVwhen
p555
aS'lately'
p556
aVother
p557
aVyou
p558
aS'really'
p559
aS"what's"
p560
aS'welcome'
p561
aS"let's"
p562
aS'serious'
p563
aS'e'
p564
aS'together'
p565
aVhaving
p566
aS'u'
p567
aS"we're"
p568
aS'far'
p569
aS'everywhere'
p570
aS'hello'
p571
aVonce
p572
atp573
Rp574
.
